target datalayout = "e-m:e-p270:32:32-p271:32:32-p272:64:64-i64:64-i128:128-f80:128-n8:16:32:64-S128"
target triple = "x86_64-pc-linux-gnu"

%struct._object = type { %union.anon, ptr }
%union.anon = type { i64 }
%struct.anon = type { i32, i32 }

@_Py_NoneStruct = external global %struct._object, align 8
@.str.28 = private unnamed_addr constant [38 x i8] c"../cpython/Modules/_testcapi/object.c\00", align 1
@.str.33 = private unnamed_addr constant [12 x i8] c"obj == NULL\00", align 1
@__PRETTY_FUNCTION__.test_py_clear = private unnamed_addr constant [48 x i8] c"PyObject *test_py_clear(PyObject *, PyObject *)\00", align 1
@.str.34 = private unnamed_addr constant [17 x i8] c"array[0] == NULL\00", align 1
@.str.35 = private unnamed_addr constant [15 x i8] c"p == array + 1\00", align 1

; Function Attrs: alwaysinline nounwind uwtable
define internal i32 @_Py_IsImmortal(ptr noundef %0) #4 {
  %2 = alloca ptr, align 8
  store ptr %0, ptr %2, align 8, !tbaa !3
  %3 = load ptr, ptr %2, align 8, !tbaa !3
  %4 = getelementptr inbounds nuw %struct._object, ptr %3, i32 0, i32 0
  %5 = getelementptr inbounds nuw %struct.anon, ptr %4, i32 0, i32 0
  %6 = load i32, ptr %5, align 8, !tbaa !16
  %7 = icmp slt i32 %6, 0
  %8 = zext i1 %7 to i32
  ret i32 %8
}

; Function Attrs: alwaysinline nounwind uwtable
define internal void @Py_DECREF(ptr noundef %0) #4 {
  %2 = alloca ptr, align 8
  store ptr %0, ptr %2, align 8, !tbaa !3
  %3 = load ptr, ptr %2, align 8, !tbaa !3
  %4 = call i32 @_Py_IsImmortal(ptr noundef %3)
  %5 = icmp ne i32 %4, 0
  br i1 %5, label %6, label %7

6:                                                ; preds = %1
  br label %16

7:                                                ; preds = %1
  %8 = load ptr, ptr %2, align 8, !tbaa !3
  %9 = getelementptr inbounds nuw %struct._object, ptr %8, i32 0, i32 0
  %10 = getelementptr inbounds nuw %struct.anon, ptr %9, i32 0, i32 0
  %11 = load i32, ptr %10, align 8, !tbaa !16
  %12 = add i32 %11, -1
  store i32 %12, ptr %10, align 8, !tbaa !16
  %13 = icmp eq i32 %12, 0
  br i1 %13, label %14, label %16

14:                                               ; preds = %7
  %15 = load ptr, ptr %2, align 8, !tbaa !3
  call void @_Py_Dealloc(ptr noundef %15)
  br label %16

16:                                               ; preds = %6, %14, %7
  ret void
}

; Function Attrs: nounwind uwtable
define internal ptr @test_py_clear(ptr noundef %0, ptr noundef %1) #0 {
  %3 = alloca ptr, align 8
  %4 = alloca ptr, align 8
  %5 = alloca ptr, align 8
  %6 = alloca ptr, align 8
  %7 = alloca i32, align 4
  %8 = alloca ptr, align 8
  %9 = alloca ptr, align 8
  %10 = alloca [1 x ptr], align 8
  %11 = alloca ptr, align 8
  %12 = alloca ptr, align 8
  %13 = alloca ptr, align 8
  store ptr %0, ptr %4, align 8, !tbaa !3
  store ptr %1, ptr %5, align 8, !tbaa !3
  call void @llvm.lifetime.start.p0(i64 8, ptr %6) #6
  %14 = call ptr @PyList_New(i64 noundef 0)
  store ptr %14, ptr %6, align 8, !tbaa !3
  %15 = load ptr, ptr %6, align 8, !tbaa !3
  %16 = icmp eq ptr %15, null
  br i1 %16, label %17, label %18

17:                                               ; preds = %2
  store ptr null, ptr %3, align 8
  store i32 1, ptr %7, align 4
  br label %73

18:                                               ; preds = %2
  br label %19

19:                                               ; preds = %18
  call void @llvm.lifetime.start.p0(i64 8, ptr %8) #6
  store ptr %6, ptr %8, align 8, !tbaa !12
  call void @llvm.lifetime.start.p0(i64 8, ptr %9) #6
  %20 = load ptr, ptr %8, align 8, !tbaa !12
  %21 = load ptr, ptr %20, align 8, !tbaa !3
  store ptr %21, ptr %9, align 8, !tbaa !3
  %22 = load ptr, ptr %9, align 8, !tbaa !3
  %23 = icmp ne ptr %22, null
  br i1 %23, label %24, label %27

24:                                               ; preds = %19
  %25 = load ptr, ptr %8, align 8, !tbaa !12
  store ptr null, ptr %25, align 8, !tbaa !3
  %26 = load ptr, ptr %9, align 8, !tbaa !3
  call void @Py_DECREF(ptr noundef %26)
  br label %27

27:                                               ; preds = %24, %19
  call void @llvm.lifetime.end.p0(i64 8, ptr %9) #6
  call void @llvm.lifetime.end.p0(i64 8, ptr %8) #6
  br label %28

28:                                               ; preds = %27
  br label %29

29:                                               ; preds = %28
  %30 = load ptr, ptr %6, align 8, !tbaa !3
  %31 = icmp eq ptr %30, null
  br i1 %31, label %32, label %33

32:                                               ; preds = %29
  br label %35

33:                                               ; preds = %29
  call void @__assert_fail(ptr noundef @.str.33, ptr noundef @.str.28, i32 noundef 296, ptr noundef @__PRETTY_FUNCTION__.test_py_clear) #7
  unreachable

34:                                               ; No predecessors!
  br label %35

35:                                               ; preds = %34, %32
  call void @llvm.lifetime.start.p0(i64 8, ptr %10) #6
  %36 = call ptr @PyList_New(i64 noundef 0)
  %37 = getelementptr [1 x ptr], ptr %10, i64 0, i64 0
  store ptr %36, ptr %37, align 8, !tbaa !3
  %38 = getelementptr [1 x ptr], ptr %10, i64 0, i64 0
  %39 = load ptr, ptr %38, align 8, !tbaa !3
  %40 = icmp eq ptr %39, null
  br i1 %40, label %41, label %42

41:                                               ; preds = %35
  store ptr null, ptr %3, align 8
  store i32 1, ptr %7, align 4
  br label %72

42:                                               ; preds = %35
  call void @llvm.lifetime.start.p0(i64 8, ptr %11) #6
  %43 = getelementptr inbounds [1 x ptr], ptr %10, i64 0, i64 0
  store ptr %43, ptr %11, align 8, !tbaa !12
  br label %44

44:                                               ; preds = %42
  call void @llvm.lifetime.start.p0(i64 8, ptr %12) #6
  %45 = load ptr, ptr %11, align 8, !tbaa !12
  %46 = getelementptr ptr, ptr %45, i32 1
  store ptr %46, ptr %11, align 8, !tbaa !12
  store ptr %45, ptr %12, align 8, !tbaa !12
  call void @llvm.lifetime.start.p0(i64 8, ptr %13) #6
  %47 = load ptr, ptr %12, align 8, !tbaa !12
  %48 = load ptr, ptr %47, align 8, !tbaa !3
  store ptr %48, ptr %13, align 8, !tbaa !3
  %49 = load ptr, ptr %13, align 8, !tbaa !3
  %50 = icmp ne ptr %49, null
  br i1 %50, label %51, label %54

51:                                               ; preds = %44
  %52 = load ptr, ptr %12, align 8, !tbaa !12
  store ptr null, ptr %52, align 8, !tbaa !3
  %53 = load ptr, ptr %13, align 8, !tbaa !3
  call void @Py_DECREF(ptr noundef %53)
  br label %54

54:                                               ; preds = %51, %44
  call void @llvm.lifetime.end.p0(i64 8, ptr %13) #6
  call void @llvm.lifetime.end.p0(i64 8, ptr %12) #6
  br label %55

55:                                               ; preds = %54
  br label %56

56:                                               ; preds = %55
  %57 = getelementptr [1 x ptr], ptr %10, i64 0, i64 0
  %58 = load ptr, ptr %57, align 8, !tbaa !3
  %59 = icmp eq ptr %58, null
  br i1 %59, label %60, label %61

60:                                               ; preds = %56
  br label %63

61:                                               ; preds = %56
  call void @__assert_fail(ptr noundef @.str.34, ptr noundef @.str.28, i32 noundef 307, ptr noundef @__PRETTY_FUNCTION__.test_py_clear) #7
  unreachable

62:                                               ; No predecessors!
  br label %63

63:                                               ; preds = %62, %60
  %64 = load ptr, ptr %11, align 8, !tbaa !12
  %65 = getelementptr inbounds [1 x ptr], ptr %10, i64 0, i64 0
  %66 = getelementptr ptr, ptr %65, i64 1
  %67 = icmp eq ptr %64, %66
  br i1 %67, label %68, label %69

68:                                               ; preds = %63
  br label %71

69:                                               ; preds = %63
  call void @__assert_fail(ptr noundef @.str.35, ptr noundef @.str.28, i32 noundef 308, ptr noundef @__PRETTY_FUNCTION__.test_py_clear) #7
  unreachable

70:                                               ; No predecessors!
  br label %71

71:                                               ; preds = %70, %68
  store ptr @_Py_NoneStruct, ptr %3, align 8
  store i32 1, ptr %7, align 4
  call void @llvm.lifetime.end.p0(i64 8, ptr %11) #6
  br label %72

72:                                               ; preds = %71, %41
  call void @llvm.lifetime.end.p0(i64 8, ptr %10) #6
  br label %73

73:                                               ; preds = %72, %17
  call void @llvm.lifetime.end.p0(i64 8, ptr %6) #6
  %74 = load ptr, ptr %3, align 8
  ret ptr %74
}