; Function Attrs: nounwind uwtable
define internal noundef ptr @test_py_clear(ptr readnone captures(none) %0, ptr readnone captures(none) %1) #0 {
  %3 = tail call ptr @PyList_New(i64 noundef 0) #5
  %4 = icmp eq ptr %3, null
  br i1 %4, label %Py_DECREF.exit17, label %5

5:                                                ; preds = %2
  %6 = load i32, ptr %3, align 8, !tbaa !8
  %.not.i = icmp sgt i32 %6, -1
  br i1 %.not.i, label %7, label %Py_DECREF.exit

7:                                                ; preds = %5
  %8 = add nsw i32 %6, -1
  store i32 %8, ptr %3, align 8, !tbaa !8
  %9 = icmp eq i32 %8, 0
  br i1 %9, label %10, label %Py_DECREF.exit

10:                                               ; preds = %7
  tail call void @_Py_Dealloc(ptr noundef nonnull %3) #5
  br label %Py_DECREF.exit

Py_DECREF.exit:                                   ; preds = %5, %7, %10
  %11 = tail call ptr @PyList_New(i64 noundef 0) #5
  %12 = icmp eq ptr %11, null
  br i1 %12, label %Py_DECREF.exit17, label %13

13:                                               ; preds = %Py_DECREF.exit
  %14 = load i32, ptr %11, align 8, !tbaa !8
  %.not.i16 = icmp sgt i32 %14, -1
  br i1 %.not.i16, label %15, label %Py_DECREF.exit17

15:                                               ; preds = %13
  %16 = add nsw i32 %14, -1
  store i32 %16, ptr %11, align 8, !tbaa !8
  %17 = icmp eq i32 %16, 0
  br i1 %17, label %18, label %Py_DECREF.exit17

18:                                               ; preds = %15
  tail call void @_Py_Dealloc(ptr noundef nonnull %11) #5
  br label %Py_DECREF.exit17

Py_DECREF.exit17:                                 ; preds = %Py_DECREF.exit, %13, %15, %18, %2
  %.0 = phi ptr [ null, %2 ], [ null, %Py_DECREF.exit ], [ @_Py_NoneStruct, %13 ], [ @_Py_NoneStruct, %15 ], [ @_Py_NoneStruct, %18 ]
  ret ptr %.0
}